; ModuleID = 'source-C-CXX/27/608.c'
source_filename = "source-C-CXX/27/608.c"
target datalayout = "e-m:e-p270:32:32-p271:32:32-p272:64:64-i64:64-f80:128-n8:16:32:64-S128"
target triple = "x86_64-pc-linux-gnu"

@.str = private unnamed_addr constant [4 x i8] c"%d,\00", align 1
@.str.1 = private unnamed_addr constant [3 x i8] c"%d\00", align 1

; Function Attrs: nounwind sspstrong uwtable
define dso_local void @main() local_unnamed_addr #0 {
  %1 = alloca [10000 x i8], align 16
  %2 = getelementptr inbounds [10000 x i8], [10000 x i8]* %1, i64 0, i64 0
  call void @llvm.lifetime.start.p0i8(i64 10000, i8* nonnull %2) #4
  %3 = call i32 (i8*, ...) bitcast (i32 (...)* @gets to i32 (i8*, ...)*)(i8* nonnull %2) #4
  br label %4

4:                                                ; preds = %13, %0
  %5 = phi i8* [ %2, %0 ], [ %14, %13 ]
  %6 = phi i32 [ 0, %0 ], [ %15, %13 ]
  %7 = load i8, i8* %5, align 1, !tbaa !5
  br label %8

8:                                                ; preds = %4, %18
  %9 = phi i32 [ 0, %18 ], [ %6, %4 ]
  switch i8 %7, label %10 [
    i8 32, label %16
    i8 0, label %16
  ]

10:                                               ; preds = %8
  %11 = add nuw nsw i32 %9, 1
  %12 = getelementptr inbounds i8, i8* %5, i64 1
  br label %13

13:                                               ; preds = %10, %19, %22
  %14 = phi i8* [ %25, %22 ], [ %21, %19 ], [ %12, %10 ]
  %15 = phi i32 [ 0, %22 ], [ 0, %19 ], [ %11, %10 ]
  br label %4, !llvm.loop !8

16:                                               ; preds = %8, %8
  %17 = icmp eq i32 %9, 0
  br i1 %17, label %22, label %18

18:                                               ; preds = %16
  switch i8 %7, label %8 [
    i8 32, label %19
    i8 0, label %26
  ]

19:                                               ; preds = %18
  %20 = call i32 (i8*, ...) @printf(i8* nonnull dereferenceable(1) getelementptr inbounds ([4 x i8], [4 x i8]* @.str, i64 0, i64 0), i32 %9)
  %21 = getelementptr inbounds i8, i8* %5, i64 1
  br label %13

22:                                               ; preds = %16
  %23 = icmp eq i8 %7, 32
  %24 = zext i1 %23 to i64
  %25 = getelementptr i8, i8* %5, i64 %24
  br label %13

26:                                               ; preds = %18
  %27 = call i32 (i8*, ...) @printf(i8* nonnull dereferenceable(1) getelementptr inbounds ([3 x i8], [3 x i8]* @.str.1, i64 0, i64 0), i32 %9)
  call void @llvm.lifetime.end.p0i8(i64 10000, i8* nonnull %2) #4
  ret void
}

; Function Attrs: argmemonly mustprogress nofree nosync nounwind willreturn
declare void @llvm.lifetime.start.p0i8(i64 immarg, i8* nocapture) #1

declare i32 @gets(...) local_unnamed_addr #2

; Function Attrs: nofree nounwind
declare noundef i32 @printf(i8* nocapture noundef readonly, ...) local_unnamed_addr #3

; Function Attrs: argmemonly mustprogress nofree nosync nounwind willreturn
declare void @llvm.lifetime.end.p0i8(i64 immarg, i8* nocapture) #1


!llvm.module.flags = !{!0, !1, !2, !3}
!llvm.ident = !{!4}

!0 = !{i32 1, !"wchar_size", i32 4}
!1 = !{i32 7, !"PIC Level", i32 2}
!2 = !{i32 7, !"PIE Level", i32 2}
!3 = !{i32 7, !"uwtable", i32 1}
!4 = !{!"clang version 13.0.0"}
!5 = !{!6, !6, i64 0}
!6 = !{!"omnipotent char", !7, i64 0}
!7 = !{!"Simple C/C++ TBAA"}
!8 = distinct !{!8, !9}
!9 = !{!"llvm.loop.mustprogress"}
